target datalayout = "e-m:e-p270:32:32-p271:32:32-p272:64:64-i64:64-i128:128-f80:128-n8:16:32:64-S128"
target triple = "x86_64-pc-linux-gnu"

%struct.object_id = type { [32 x i8], i32 }
%struct.show_data = type { ptr, ptr, i32 }

@.str.33 = private unnamed_addr constant [1 x i8] zeroinitializer, align 1
@git_gettext_enabled = external global i32, align 4
@.str.34 = private unnamed_addr constant [38 x i8] c"failed to resolve '%s' as a valid ref\00", align 1
@.str.83 = private unnamed_addr constant [4 x i8] c"%s\0A\00", align 1
@.str.84 = private unnamed_addr constant [10 x i8] c"%s -> %s\0A\00", align 1
@.str.85 = private unnamed_addr constant [20 x i8] c"%s (%s) -> %s (%s)\0A\00", align 1

; Function Attrs: inlinehint nounwind uwtable
define internal i32 @const_error() #4 {
  ret i32 -1
}

; Function Attrs: inlinehint nounwind uwtable
define internal ptr @_(ptr noundef %0) #4 {
  %2 = alloca ptr, align 8
  %3 = alloca ptr, align 8
  store ptr %0, ptr %3, align 8, !tbaa !11
  %4 = load ptr, ptr %3, align 8, !tbaa !11
  %5 = load i8, ptr %4, align 1, !tbaa !30
  %6 = icmp ne i8 %5, 0
  br i1 %6, label %8, label %7

7:                                                ; preds = %1
  store ptr @.str.33, ptr %2, align 8
  br label %16

8:                                                ; preds = %1
  %9 = load i32, ptr @git_gettext_enabled, align 4, !tbaa !4
  %10 = icmp ne i32 %9, 0
  br i1 %10, label %13, label %11

11:                                               ; preds = %8
  %12 = load ptr, ptr %3, align 8, !tbaa !11
  store ptr %12, ptr %2, align 8
  br label %16

13:                                               ; preds = %8
  %14 = load ptr, ptr %3, align 8, !tbaa !11
  %15 = call ptr @dcgettext(ptr noundef null, ptr noundef %14, i32 noundef 5) #10
  store ptr %15, ptr %2, align 8
  br label %16

16:                                               ; preds = %13, %11, %7
  %17 = load ptr, ptr %2, align 8
  ret ptr %17
}

; Function Attrs: nounwind uwtable
define internal i32 @show_reference(ptr noundef %0, ptr noundef %1, ptr noundef %2, i32 noundef %3, ptr noundef %4) #0 {
  %6 = alloca i32, align 4
  %7 = alloca ptr, align 8
  %8 = alloca ptr, align 8
  %9 = alloca ptr, align 8
  %10 = alloca i32, align 4
  %11 = alloca ptr, align 8
  %12 = alloca ptr, align 8
  %13 = alloca %struct.object_id, align 4
  %14 = alloca i32, align 4
  %15 = alloca i32, align 4
  %16 = alloca i32, align 4
  store ptr %0, ptr %7, align 8, !tbaa !11
  store ptr %1, ptr %8, align 8, !tbaa !11
  store ptr %2, ptr %9, align 8, !tbaa !39
  store i32 %3, ptr %10, align 4, !tbaa !4
  store ptr %4, ptr %11, align 8, !tbaa !29
  call void @llvm.lifetime.start.p0(i64 8, ptr %12) #10
  %17 = load ptr, ptr %11, align 8, !tbaa !29
  store ptr %17, ptr %12, align 8, !tbaa !101
  %18 = load ptr, ptr %12, align 8, !tbaa !101
  %19 = getelementptr inbounds nuw %struct.show_data, ptr %18, i32 0, i32 1
  %20 = load ptr, ptr %19, align 8, !tbaa !51
  %21 = load ptr, ptr %7, align 8, !tbaa !11
  %22 = call i32 @wildmatch(ptr noundef %20, ptr noundef %21, i32 noundef 0)
  %23 = icmp ne i32 %22, 0
  br i1 %23, label %77, label %24

24:                                               ; preds = %5
  %25 = load ptr, ptr %12, align 8, !tbaa !101
  %26 = getelementptr inbounds nuw %struct.show_data, ptr %25, i32 0, i32 2
  %27 = load i32, ptr %26, align 8, !tbaa !52
  %28 = icmp eq i32 %27, 0
  br i1 %28, label %29, label %32

29:                                               ; preds = %24
  %30 = load ptr, ptr %7, align 8, !tbaa !11
  %31 = call i32 (ptr, ...) @printf(ptr noundef @.str.83, ptr noundef %30)
  br label %76

32:                                               ; preds = %24
  %33 = load ptr, ptr %12, align 8, !tbaa !101
  %34 = getelementptr inbounds nuw %struct.show_data, ptr %33, i32 0, i32 2
  %35 = load i32, ptr %34, align 8, !tbaa !52
  %36 = icmp eq i32 %35, 1
  br i1 %36, label %37, label %42

37:                                               ; preds = %32
  %38 = load ptr, ptr %7, align 8, !tbaa !11
  %39 = load ptr, ptr %9, align 8, !tbaa !39
  %40 = call ptr @oid_to_hex(ptr noundef %39)
  %41 = call i32 (ptr, ...) @printf(ptr noundef @.str.84, ptr noundef %38, ptr noundef %40)
  br label %75

42:                                               ; preds = %32
  call void @llvm.lifetime.start.p0(i64 36, ptr %13) #10
  call void @llvm.lifetime.start.p0(i64 4, ptr %14) #10
  call void @llvm.lifetime.start.p0(i64 4, ptr %15) #10
  %43 = load ptr, ptr %12, align 8, !tbaa !101
  %44 = getelementptr inbounds nuw %struct.show_data, ptr %43, i32 0, i32 0
  %45 = load ptr, ptr %44, align 8, !tbaa !49
  %46 = load ptr, ptr %7, align 8, !tbaa !11
  %47 = call i32 @repo_get_oid(ptr noundef %45, ptr noundef %46, ptr noundef %13)
  %48 = icmp ne i32 %47, 0
  br i1 %48, label %49, label %54

49:                                               ; preds = %42
  %50 = call ptr @_(ptr noundef @.str.34)
  %51 = load ptr, ptr %7, align 8, !tbaa !11
  %52 = call i32 (ptr, ...) @error(ptr noundef %50, ptr noundef %51)
  %53 = call i32 @const_error()
  store i32 %53, ptr %6, align 4
  store i32 1, ptr %16, align 4
  br label %72

54:                                               ; preds = %42
  %55 = load ptr, ptr %12, align 8, !tbaa !101
  %56 = getelementptr inbounds nuw %struct.show_data, ptr %55, i32 0, i32 0
  %57 = load ptr, ptr %56, align 8, !tbaa !49
  %58 = call i32 @oid_object_info(ptr noundef %57, ptr noundef %13, ptr noundef null)
  store i32 %58, ptr %14, align 4, !tbaa !4
  %59 = load ptr, ptr %12, align 8, !tbaa !101
  %60 = getelementptr inbounds nuw %struct.show_data, ptr %59, i32 0, i32 0
  %61 = load ptr, ptr %60, align 8, !tbaa !49
  %62 = load ptr, ptr %9, align 8, !tbaa !39
  %63 = call i32 @oid_object_info(ptr noundef %61, ptr noundef %62, ptr noundef null)
  store i32 %63, ptr %15, align 4, !tbaa !4
  %64 = load ptr, ptr %7, align 8, !tbaa !11
  %65 = load i32, ptr %14, align 4, !tbaa !4
  %66 = call ptr @type_name(i32 noundef %65)
  %67 = load ptr, ptr %9, align 8, !tbaa !39
  %68 = call ptr @oid_to_hex(ptr noundef %67)
  %69 = load i32, ptr %15, align 4, !tbaa !4
  %70 = call ptr @type_name(i32 noundef %69)
  %71 = call i32 (ptr, ...) @printf(ptr noundef @.str.85, ptr noundef %64, ptr noundef %66, ptr noundef %68, ptr noundef %70)
  store i32 0, ptr %16, align 4
  br label %72

72:                                               ; preds = %54, %49
  call void @llvm.lifetime.end.p0(i64 4, ptr %15) #10
  call void @llvm.lifetime.end.p0(i64 4, ptr %14) #10
  call void @llvm.lifetime.end.p0(i64 36, ptr %13) #10
  %73 = load i32, ptr %16, align 4
  switch i32 %73, label %78 [
    i32 0, label %74
  ]

74:                                               ; preds = %72
  br label %75

75:                                               ; preds = %74, %37
  br label %76

76:                                               ; preds = %75, %29
  br label %77

77:                                               ; preds = %76, %5
  store i32 0, ptr %6, align 4
  store i32 1, ptr %16, align 4
  br label %78

78:                                               ; preds = %77, %72
  call void @llvm.lifetime.end.p0(i64 8, ptr %12) #10
  %79 = load i32, ptr %6, align 4
  ret i32 %79
}