; Function Attrs: nounwind uwtable
define internal range(i32 -1, 1) i32 @show_reference(ptr noundef %0, ptr readnone captures(none) %1, ptr noundef %2, i32 %3, ptr noundef readonly captures(none) %4) #0 {
  %6 = alloca %struct.object_id, align 4
  %7 = getelementptr inbounds nuw i8, ptr %4, i64 8
  %8 = load ptr, ptr %7, align 8, !tbaa !65
  %9 = tail call i32 @wildmatch(ptr noundef %8, ptr noundef %0, i32 noundef 0) #16
  %.not = icmp eq i32 %9, 0
  br i1 %.not, label %10, label %34

10:                                               ; preds = %5
  %11 = getelementptr inbounds nuw i8, ptr %4, i64 16
  %12 = load i32, ptr %11, align 8, !tbaa !66
  switch i32 %12, label %17 [
    i32 0, label %13
    i32 1, label %14
  ]

13:                                               ; preds = %10
  %puts = tail call i32 @puts(ptr nonnull dereferenceable(1) %0)
  br label %34

14:                                               ; preds = %10
  %15 = tail call ptr @oid_to_hex(ptr noundef %2) #16
  %16 = tail call i32 (ptr, ...) @printf(ptr noundef nonnull dereferenceable(1) @.str.84, ptr noundef %0, ptr noundef %15)
  br label %34

17:                                               ; preds = %10
  call void @llvm.lifetime.start.p0(i64 36, ptr nonnull %6) #16
  %18 = load ptr, ptr %4, align 8, !tbaa !63
  %19 = call i32 @repo_get_oid(ptr noundef %18, ptr noundef %0, ptr noundef nonnull %6) #16
  %.not21 = icmp eq i32 %19, 0
  br i1 %.not21, label %.thread, label %20

20:                                               ; preds = %17
  %21 = load i32, ptr @git_gettext_enabled, align 4, !tbaa !4
  %.not4.i = icmp eq i32 %21, 0
  br i1 %.not4.i, label %32, label %22

22:                                               ; preds = %20
  %23 = call ptr @dcgettext(ptr noundef null, ptr noundef nonnull @.str.34, i32 noundef 5) #16
  br label %32

.thread:                                          ; preds = %17
  %24 = load ptr, ptr %4, align 8, !tbaa !63
  %25 = call i32 @oid_object_info(ptr noundef %24, ptr noundef nonnull %6, ptr noundef null) #16
  %26 = load ptr, ptr %4, align 8, !tbaa !63
  %27 = call i32 @oid_object_info(ptr noundef %26, ptr noundef %2, ptr noundef null) #16
  %28 = call ptr @type_name(i32 noundef %25) #16
  %29 = call ptr @oid_to_hex(ptr noundef %2) #16
  %30 = call ptr @type_name(i32 noundef %27) #16
  %31 = call i32 (ptr, ...) @printf(ptr noundef nonnull dereferenceable(1) @.str.85, ptr noundef %0, ptr noundef %28, ptr noundef %29, ptr noundef %30)
  call void @llvm.lifetime.end.p0(i64 36, ptr nonnull %6) #16
  br label %34

32:                                               ; preds = %22, %20
  %.0.i = phi ptr [ %23, %22 ], [ @.str.34, %20 ]
  %33 = call i32 (ptr, ...) @error(ptr noundef %.0.i, ptr noundef %0) #16
  call void @llvm.lifetime.end.p0(i64 36, ptr nonnull %6) #16
  br label %34

34:                                               ; preds = %5, %14, %13, %.thread, %32
  %.1 = phi i32 [ -1, %32 ], [ 0, %.thread ], [ 0, %13 ], [ 0, %14 ], [ 0, %5 ]
  ret i32 %.1
}